target datalayout = "e-m:e-p270:32:32-p271:32:32-p272:64:64-i64:64-i128:128-f80:128-n8:16:32:64-S128"
target triple = "x86_64-pc-linux-gnu"

%struct.zend_type = type { ptr, i32 }
%struct.zend_type_list = type { i32, [1 x %struct.zend_type] }

; Function Attrs: inlinehint nounwind uwtable
define internal void @accel_copy_permanent_list_types(ptr noundef %0, ptr %1, i32 %2) #8 {
  %4 = alloca %struct.zend_type, align 8
  %5 = alloca ptr, align 8
  %6 = alloca ptr, align 8
  %7 = alloca ptr, align 8
  %8 = alloca ptr, align 8
  %9 = alloca ptr, align 8
  %10 = getelementptr inbounds nuw { ptr, i32 }, ptr %4, i32 0, i32 0
  store ptr %1, ptr %10, align 8
  %11 = getelementptr inbounds nuw { ptr, i32 }, ptr %4, i32 0, i32 1
  store i32 %2, ptr %11, align 8
  store ptr %0, ptr %5, align 8, !tbaa !40
  call void @llvm.lifetime.start.p0(i64 8, ptr %6) #19
  br label %12

12:                                               ; preds = %3
  call void @llvm.lifetime.start.p0(i64 8, ptr %7) #19
  call void @llvm.lifetime.start.p0(i64 8, ptr %8) #19
  %13 = getelementptr inbounds nuw %struct.zend_type, ptr %4, i32 0, i32 1
  %14 = load i32, ptr %13, align 8, !tbaa !392
  %15 = and i32 %14, 4194304
  %16 = icmp ne i32 %15, 0
  br i1 %16, label %17, label %29

17:                                               ; preds = %12
  call void @llvm.lifetime.start.p0(i64 8, ptr %9) #19
  %18 = getelementptr inbounds nuw %struct.zend_type, ptr %4, i32 0, i32 0
  %19 = load ptr, ptr %18, align 8, !tbaa !393
  store ptr %19, ptr %9, align 8, !tbaa !40
  %20 = load ptr, ptr %9, align 8, !tbaa !40
  %21 = getelementptr inbounds nuw %struct.zend_type_list, ptr %20, i32 0, i32 1
  %22 = getelementptr inbounds [1 x %struct.zend_type], ptr %21, i64 0, i64 0
  store ptr %22, ptr %7, align 8, !tbaa !40
  %23 = load ptr, ptr %7, align 8, !tbaa !40
  %24 = load ptr, ptr %9, align 8, !tbaa !40
  %25 = getelementptr inbounds nuw %struct.zend_type_list, ptr %24, i32 0, i32 0
  %26 = load i32, ptr %25, align 8, !tbaa !394
  %27 = zext i32 %26 to i64
  %28 = getelementptr inbounds nuw %struct.zend_type, ptr %23, i64 %27
  store ptr %28, ptr %8, align 8, !tbaa !40
  call void @llvm.lifetime.end.p0(i64 8, ptr %9) #19
  br label %32

29:                                               ; preds = %12
  store ptr %4, ptr %7, align 8, !tbaa !40
  %30 = load ptr, ptr %7, align 8, !tbaa !40
  %31 = getelementptr inbounds %struct.zend_type, ptr %30, i64 1
  store ptr %31, ptr %8, align 8, !tbaa !40
  br label %32

32:                                               ; preds = %29, %17
  br label %33

33:                                               ; preds = %67, %32
  %34 = load ptr, ptr %7, align 8, !tbaa !40
  store ptr %34, ptr %6, align 8, !tbaa !40
  %35 = load ptr, ptr %6, align 8, !tbaa !40
  %36 = getelementptr inbounds nuw %struct.zend_type, ptr %35, i32 0, i32 1
  %37 = load i32, ptr %36, align 8, !tbaa !392
  %38 = and i32 %37, 4194304
  %39 = icmp ne i32 %38, 0
  br i1 %39, label %40, label %52

40:                                               ; preds = %33
  %41 = load ptr, ptr %6, align 8, !tbaa !40
  %42 = getelementptr inbounds nuw %struct.zend_type, ptr %41, i32 0, i32 1
  %43 = load i32, ptr %42, align 8, !tbaa !392
  %44 = and i32 %43, 524288
  %45 = icmp ne i32 %44, 0
  call void @llvm.assume(i1 %45)
  %46 = load ptr, ptr %5, align 8, !tbaa !40
  %47 = load ptr, ptr %6, align 8, !tbaa !40
  %48 = getelementptr inbounds nuw { ptr, i32 }, ptr %47, i32 0, i32 0
  %49 = load ptr, ptr %48, align 8
  %50 = getelementptr inbounds nuw { ptr, i32 }, ptr %47, i32 0, i32 1
  %51 = load i32, ptr %50, align 8
  call void @accel_copy_permanent_list_types(ptr noundef %46, ptr %49, i32 %51)
  br label %52

52:                                               ; preds = %40, %33
  %53 = load ptr, ptr %6, align 8, !tbaa !40
  %54 = getelementptr inbounds nuw %struct.zend_type, ptr %53, i32 0, i32 1
  %55 = load i32, ptr %54, align 8, !tbaa !392
  %56 = and i32 %55, 16777216
  %57 = icmp ne i32 %56, 0
  br i1 %57, label %58, label %66

58:                                               ; preds = %52
  %59 = load ptr, ptr %5, align 8, !tbaa !40
  %60 = load ptr, ptr %6, align 8, !tbaa !40
  %61 = getelementptr inbounds nuw %struct.zend_type, ptr %60, i32 0, i32 0
  %62 = load ptr, ptr %61, align 8, !tbaa !393
  %63 = call ptr %59(ptr noundef %62)
  %64 = load ptr, ptr %6, align 8, !tbaa !40
  %65 = getelementptr inbounds nuw %struct.zend_type, ptr %64, i32 0, i32 0
  store ptr %63, ptr %65, align 8, !tbaa !393
  br label %66

66:                                               ; preds = %58, %52
  br label %67

67:                                               ; preds = %66
  %68 = load ptr, ptr %7, align 8, !tbaa !40
  %69 = getelementptr inbounds nuw %struct.zend_type, ptr %68, i32 1
  store ptr %69, ptr %7, align 8, !tbaa !40
  %70 = load ptr, ptr %8, align 8, !tbaa !40
  %71 = icmp ult ptr %69, %70
  br i1 %71, label %33, label %72

72:                                               ; preds = %67
  call void @llvm.lifetime.end.p0(i64 8, ptr %8) #19
  call void @llvm.lifetime.end.p0(i64 8, ptr %7) #19
  br label %73

73:                                               ; preds = %72
  br label %74

74:                                               ; preds = %73
  call void @llvm.lifetime.end.p0(i64 8, ptr %6) #19
  ret void
}