; Function Attrs: inlinehint nounwind uwtable
define internal fastcc void @accel_copy_permanent_list_types(ptr noundef readonly captures(none) %0, ptr %1, i32 %2) unnamed_addr #7 {
  %4 = alloca %struct.zend_type, align 8
  store ptr %1, ptr %4, align 8
  %5 = getelementptr inbounds nuw i8, ptr %4, i64 8
  store i32 %2, ptr %5, align 8
  %6 = and i32 %2, 4194304
  %.not = icmp eq i32 %6, 0
  br i1 %.not, label %12, label %7

7:                                                ; preds = %3
  %8 = getelementptr inbounds nuw i8, ptr %1, i64 8
  %9 = load i32, ptr %1, align 8, !tbaa !352
  %10 = zext i32 %9 to i64
  %11 = getelementptr inbounds nuw %struct.zend_type, ptr %8, i64 %10
  br label %14

12:                                               ; preds = %3
  %13 = getelementptr inbounds nuw i8, ptr %4, i64 16
  br label %14

14:                                               ; preds = %12, %7
  %.015 = phi ptr [ %11, %7 ], [ %13, %12 ]
  %.0 = phi ptr [ %8, %7 ], [ %4, %12 ]
  br label %15

15:                                               ; preds = %29, %14
  %.1 = phi ptr [ %.0, %14 ], [ %30, %29 ]
  %16 = getelementptr inbounds nuw i8, ptr %.1, i64 8
  %17 = load i32, ptr %16, align 8, !tbaa !354
  %18 = and i32 %17, 4194304
  %.not17 = icmp eq i32 %18, 0
  br i1 %.not17, label %23, label %19

19:                                               ; preds = %15
  %20 = and i32 %17, 524288
  %21 = icmp ne i32 %20, 0
  call void @llvm.assume(i1 %21)
  %22 = load ptr, ptr %.1, align 8
  call fastcc void @accel_copy_permanent_list_types(ptr noundef %0, ptr %22, i32 %17)
  %.pre = load i32, ptr %16, align 8, !tbaa !354
  br label %23

23:                                               ; preds = %19, %15
  %24 = phi i32 [ %.pre, %19 ], [ %17, %15 ]
  %25 = and i32 %24, 16777216
  %.not18 = icmp eq i32 %25, 0
  br i1 %.not18, label %29, label %26

26:                                               ; preds = %23
  %27 = load ptr, ptr %.1, align 8, !tbaa !355
  %28 = call ptr %0(ptr noundef %27) #26, !callees !340
  store ptr %28, ptr %.1, align 8, !tbaa !355
  br label %29

29:                                               ; preds = %23, %26
  %30 = getelementptr inbounds nuw i8, ptr %.1, i64 16
  %31 = icmp ult ptr %30, %.015
  br i1 %31, label %15, label %32

32:                                               ; preds = %29
  ret void
}